; Function Attrs: mustprogress nounwind memory(read, inaccessiblemem: write) uwtable
define dso_local noundef zeroext i1 @_ZN4i18n12phonenumbers15HasPrefixStringERKNSt7__cxx1112basic_stringIcSt11char_traitsIcESaIcEEES8_(ptr noundef nonnull readonly align 8 captures(none) dereferenceable(32) %0, ptr noundef nonnull readonly align 8 captures(none) dereferenceable(32) %1) local_unnamed_addr #3 personality ptr @__gxx_personality_v0 {
  %3 = load ptr, ptr %0, align 8, !tbaa !14
  %4 = getelementptr inbounds nuw i8, ptr %0, i64 8
  %5 = load i64, ptr %4, align 8, !tbaa !10
  %6 = icmp sgt i64 %5, -1
  br i1 %6, label %_ZN4absl7debian211string_viewC2ISaIcEEERKNSt7__cxx1112basic_stringIcSt11char_traitsIcET_EE.exit, label %7, !prof !17

7:                                                ; preds = %2
  tail call void @llvm.trap()
  unreachable

_ZN4absl7debian211string_viewC2ISaIcEEERKNSt7__cxx1112basic_stringIcSt11char_traitsIcET_EE.exit: ; preds = %2
  %8 = load ptr, ptr %1, align 8, !tbaa !14
  %9 = getelementptr inbounds nuw i8, ptr %1, i64 8
  %10 = load i64, ptr %9, align 8, !tbaa !10
  %11 = icmp sgt i64 %10, -1
  br i1 %11, label %_ZN4absl7debian211string_viewC2ISaIcEEERKNSt7__cxx1112basic_stringIcSt11char_traitsIcET_EE.exit2, label %12, !prof !17

12:                                               ; preds = %_ZN4absl7debian211string_viewC2ISaIcEEERKNSt7__cxx1112basic_stringIcSt11char_traitsIcET_EE.exit
  tail call void @llvm.trap()
  unreachable

_ZN4absl7debian211string_viewC2ISaIcEEERKNSt7__cxx1112basic_stringIcSt11char_traitsIcET_EE.exit2: ; preds = %_ZN4absl7debian211string_viewC2ISaIcEEERKNSt7__cxx1112basic_stringIcSt11char_traitsIcET_EE.exit
  %13 = icmp eq i64 %10, 0
  br i1 %13, label %_ZN4absl7debian210StartsWithENS0_11string_viewES1_.exit, label %14

14:                                               ; preds = %_ZN4absl7debian211string_viewC2ISaIcEEERKNSt7__cxx1112basic_stringIcSt11char_traitsIcET_EE.exit2
  %.not.i = icmp samesign ult i64 %5, %10
  br i1 %.not.i, label %_ZN4absl7debian210StartsWithENS0_11string_viewES1_.exit, label %15

15:                                               ; preds = %14
  %bcmp.i = tail call i32 @bcmp(ptr %3, ptr %8, i64 %10)
  %16 = icmp eq i32 %bcmp.i, 0
  br label %_ZN4absl7debian210StartsWithENS0_11string_viewES1_.exit

_ZN4absl7debian210StartsWithENS0_11string_viewES1_.exit: ; preds = %_ZN4absl7debian211string_viewC2ISaIcEEERKNSt7__cxx1112basic_stringIcSt11char_traitsIcET_EE.exit2, %14, %15
  %17 = phi i1 [ true, %_ZN4absl7debian211string_viewC2ISaIcEEERKNSt7__cxx1112basic_stringIcSt11char_traitsIcET_EE.exit2 ], [ false, %14 ], [ %16, %15 ]
  ret i1 %17
}